(dp1
S'movieId'
p2
(dp3
S'length'
p4
S'reference Movie.movieId'
p5
sS'unique'
p6
I00
sS'sortable'
p7
I3
sS'sql'
p8
S'INTEGER NOT NULL'
p9
sS'notnull'
p10
I01
sS'type'
p11
S'integer'
p12
ssS'theatreId'
p13
(dp14
g4
I512
sg6
I00
sg7
I1
sg8
S'INTEGER NOT NULL'
p15
sg10
I01
sg11
g12
ssS'theatreName'
p16
(dp17
g4
I512
sg6
I00
sg7
I2
sg8
S'CHAR(512)'
p18
sg10
I00
sg11
S'string'
p19
ss.