(dp1
S'showTime'
p2
(dp3
S'length'
p4
I512
sS'unique'
p5
I00
sS'sortable'
p6
I3
sS'sql'
p7
S'TIME NOT NULL'
p8
sS'notnull'
p9
I01
sS'type'
p10
S'time'
p11
ssS'theatreId'
p12
(dp13
g4
S'reference Theatre.theatreId'
p14
sg5
I00
sg6
I1
sg7
S'INTEGER NOT NULL'
p15
sg9
I01
sg10
S'integer'
p16
ssS'movieId'
p17
(dp18
g4
S'reference Movie.movieId'
p19
sg5
I00
sg6
I2
sg7
S'INTEGER NOT NULL'
p20
sg9
I01
sg10
g16
ss.